Certificate:
    Data:
        Version: 3 (0x2)
        Serial Number:
            24:6e:24:3b:fc:aa:11:e3:e9:6a:a6:c6:41:63:ce:24:0b:b5:bb:90
        Signature Algorithm: ecdsa-with-SHA256
        Issuer: C = IN, ST = Telangana, L = Kandi, O = NTS Root R1, OU = Root CA, CN = NTS Root R1
        Validity
            Not Before: Mar 21 20:42:47 2023 GMT
            Not After : Mar 20 20:42:47 2024 GMT
        Subject: C = IN, ST = Telangana, L = Kandi, O = NTS Intermediate, OU = NTS CA 1R3, CN = NTS CA 1R3
        Subject Public Key Info:
            Public Key Algorithm: rsaEncryption
                Public-Key: (2048 bit)
                Modulus:
                    00:ca:70:9c:22:9d:a1:06:54:bc:93:40:cf:ea:84:
                    ff:a9:8b:98:ec:1b:7f:0d:e3:09:01:d0:bb:1f:91:
                    c3:d3:31:e5:86:3f:fd:ae:33:2b:eb:26:c8:81:79:
                    02:ec:c9:e6:19:d7:cf:18:67:f0:73:44:62:0d:7a:
                    4c:99:c4:63:79:ce:f2:6b:d5:b5:27:df:20:82:4a:
                    f2:67:c8:66:f1:60:c9:c9:64:8d:58:4e:09:f1:be:
                    c6:0a:c8:20:d1:76:75:1e:43:cb:ad:4e:63:e5:21:
                    7e:f2:11:63:36:f5:c5:fe:8d:e7:af:5b:ae:fa:60:
                    ed:c2:84:70:dd:3d:04:bb:dd:3f:0d:30:52:dc:27:
                    8f:ec:48:e7:48:83:9a:ba:54:47:27:d4:31:1e:f9:
                    85:3f:8f:76:98:1d:b4:84:6c:34:c7:f9:54:2d:7f:
                    f5:4b:89:07:a3:00:24:eb:57:fb:2b:9f:32:74:d3:
                    61:26:0a:4b:04:10:45:33:7a:ff:1e:e1:f9:67:18:
                    52:a5:d2:af:73:83:8a:fb:a5:96:e0:28:2e:37:e2:
                    6c:e5:86:a7:27:53:f3:28:cb:2c:5d:18:70:2b:4c:
                    87:1e:9e:11:8b:82:6a:8a:16:3c:d6:f9:14:3a:a3:
                    e8:91:b8:06:c7:cb:8e:31:70:61:10:ec:7e:8a:e9:
                    9a:4f
                Exponent: 65537 (0x10001)
        X509v3 extensions:
            X509v3 Subject Key Identifier: 
                F3:47:CF:94:8D:B5:5E:57:B0:BF:E3:19:72:05:11:75:BE:6C:B8:4A
            X509v3 Authority Key Identifier: 
                C3:3C:05:2C:0C:59:87:25:CF:3F:7A:DF:A2:09:FA:6E:7D:97:98:06
            X509v3 Key Usage: critical
                Digital Signature, Certificate Sign, CRL Sign
            X509v3 Basic Constraints: critical
                CA:TRUE, pathlen:0
    Signature Algorithm: ecdsa-with-SHA256
    Signature Value:
        30:81:84:02:40:48:a3:7f:b5:10:37:26:4b:15:8c:77:b9:5d:
        cc:12:41:00:fd:51:33:22:6e:b1:97:8d:19:cc:25:d5:28:b0:
        2e:b5:47:93:d5:84:b7:9d:4a:6a:2e:46:77:b7:19:20:b0:0a:
        6c:ef:46:a6:66:5a:b3:b6:25:d9:e2:81:8e:16:79:02:40:0f:
        a6:58:52:97:0b:a1:6a:3a:8f:6f:33:6d:d0:a3:18:fd:00:26:
        da:4e:a6:6c:d2:4a:94:73:96:b0:bf:c2:2d:bf:21:b3:b5:fb:
        35:8d:8b:a9:13:e6:55:1f:71:00:8c:d9:89:e6:a3:22:d0:79:
        6c:0f:3d:fb:f2:6e:be:9c:c6
-----BEGIN CERTIFICATE-----
MIIDWTCCAr6gAwIBAgIUJG4kO/yqEePpaqbGQWPOJAu1u5AwCgYIKoZIzj0EAwIw
bzELMAkGA1UEBhMCSU4xEjAQBgNVBAgMCVRlbGFuZ2FuYTEOMAwGA1UEBwwFS2Fu
ZGkxFDASBgNVBAoMC05UUyBSb290IFIxMRAwDgYDVQQLDAdSb290IENBMRQwEgYD
VQQDDAtOVFMgUm9vdCBSMTAeFw0yMzAzMjEyMDQyNDdaFw0yNDAzMjAyMDQyNDda
MHYxCzAJBgNVBAYTAklOMRIwEAYDVQQIDAlUZWxhbmdhbmExDjAMBgNVBAcMBUth
bmRpMRkwFwYDVQQKDBBOVFMgSW50ZXJtZWRpYXRlMRMwEQYDVQQLDApOVFMgQ0Eg
MVIzMRMwEQYDVQQDDApOVFMgQ0EgMVIzMIIBIjANBgkqhkiG9w0BAQEFAAOCAQ8A
MIIBCgKCAQEAynCcIp2hBlS8k0DP6oT/qYuY7Bt/DeMJAdC7H5HD0zHlhj/9rjMr
6ybIgXkC7MnmGdfPGGfwc0RiDXpMmcRjec7ya9W1J98ggkryZ8hm8WDJyWSNWE4J
8b7GCsgg0XZ1HkPLrU5j5SF+8hFjNvXF/o3nr1uu+mDtwoRw3T0Eu90/DTBS3CeP
7EjnSIOaulRHJ9QxHvmFP492mB20hGw0x/lULX/1S4kHowAk61f7K58ydNNhJgpL
BBBFM3r/HuH5ZxhSpdKvc4OK+6WW4CguN+Js5YanJ1PzKMssXRhwK0yHHp4Ri4Jq
ihY81vkUOqPokbgGx8uOMXBhEOx+iumaTwIDAQABo2YwZDAdBgNVHQ4EFgQU80fP
lI21Xlewv+MZcgURdb5suEowHwYDVR0jBBgwFoAUwzwFLAxZhyXPP3rfogn6bn2X
mAYwDgYDVR0PAQH/BAQDAgGGMBIGA1UdEwEB/wQIMAYBAf8CAQAwCgYIKoZIzj0E
AwIDgYgAMIGEAkBIo3+1EDcmSxWMd7ldzBJBAP1RMyJusZeNGcwl1SiwLrVHk9WE
t51Kai5Gd7cZILAKbO9GpmZas7Yl2eKBjhZ5AkAPplhSlwuhajqPbzNt0KMY/QAm
2k6mbNJKlHOWsL/CLb8hs7X7NY2LqRPmVR9xAIzZieajItB5bA89+/JuvpzG
-----END CERTIFICATE-----
Certificate:
    Data:
        Version: 3 (0x2)
        Serial Number:
            05:24:66:35:bf:bb:53:68:cb:14:9d:e3:d3:f8:95:f2:57:53:06:2d
        Signature Algorithm: ecdsa-with-SHA256
        Issuer: C = IN, ST = Telangana, L = Kandi, O = NTS Root R1, OU = Root CA, CN = NTS Root R1
        Validity
            Not Before: Mar 21 20:14:32 2023 GMT
            Not After : Mar 18 20:14:32 2033 GMT
        Subject: C = IN, ST = Telangana, L = Kandi, O = NTS Root R1, OU = Root CA, CN = NTS Root R1
        Subject Public Key Info:
            Public Key Algorithm: id-ecPublicKey
                Public-Key: (512 bit)
                pub:
                    04:11:24:1a:9f:5f:fe:2e:44:02:45:9b:c6:e7:c3:
                    51:68:b6:86:2f:d0:7b:e1:2c:c3:07:c9:39:7e:a0:
                    8c:e4:3c:05:b5:3f:85:d8:f9:7e:03:57:d9:0f:5d:
                    1c:f8:bb:2e:72:10:65:86:5f:a5:8a:82:e4:10:82:
                    05:47:b2:b5:fe:4e:c6:dc:ff:ba:f7:da:1a:b8:6a:
                    72:08:e0:93:da:28:49:26:5f:e3:d3:a5:64:24:a2:
                    29:ef:5d:b1:68:ee:8d:0c:50:1c:47:78:15:8a:8d:
                    a2:60:b5:5c:4f:b8:8d:9f:e6:0c:4d:37:ac:1d:51:
                    73:4e:62:d2:c6:f3:ce:36:3b
                ASN1 OID: brainpoolP512r1
        X509v3 extensions:
            X509v3 Subject Key Identifier: 
                C3:3C:05:2C:0C:59:87:25:CF:3F:7A:DF:A2:09:FA:6E:7D:97:98:06
            X509v3 Authority Key Identifier: 
                C3:3C:05:2C:0C:59:87:25:CF:3F:7A:DF:A2:09:FA:6E:7D:97:98:06
            X509v3 Basic Constraints: critical
                CA:TRUE
    Signature Algorithm: ecdsa-with-SHA256
    Signature Value:
        30:81:84:02:40:58:d2:67:f2:81:5e:bb:64:fc:61:2e:16:70:
        86:8a:49:be:ef:02:5c:46:6b:56:9b:f5:d5:48:a3:b6:5a:17:
        93:5b:e1:15:28:99:0b:21:8a:5a:42:c2:1f:9e:0b:5b:fa:be:
        4a:ef:8e:8c:04:d0:14:8e:a0:87:31:5c:d0:f8:64:02:40:11:
        d7:3e:5e:2c:c6:46:c7:2e:b8:d0:23:19:35:37:ac:e9:94:11:
        3e:ae:ed:ef:8c:52:cc:12:5e:8c:86:c1:c8:45:6c:09:fe:8d:
        e9:9c:c2:b7:3a:2d:e7:8a:17:df:f4:68:3b:47:0b:de:af:06:
        ae:54:bc:43:e1:6e:bb:e4:dc
-----BEGIN CERTIFICATE-----
MIICtzCCAhygAwIBAgIUBSRmNb+7U2jLFJ3j0/iV8ldTBi0wCgYIKoZIzj0EAwIw
bzELMAkGA1UEBhMCSU4xEjAQBgNVBAgMCVRlbGFuZ2FuYTEOMAwGA1UEBwwFS2Fu
ZGkxFDASBgNVBAoMC05UUyBSb290IFIxMRAwDgYDVQQLDAdSb290IENBMRQwEgYD
VQQDDAtOVFMgUm9vdCBSMTAeFw0yMzAzMjEyMDE0MzJaFw0zMzAzMTgyMDE0MzJa
MG8xCzAJBgNVBAYTAklOMRIwEAYDVQQIDAlUZWxhbmdhbmExDjAMBgNVBAcMBUth
bmRpMRQwEgYDVQQKDAtOVFMgUm9vdCBSMTEQMA4GA1UECwwHUm9vdCBDQTEUMBIG
A1UEAwwLTlRTIFJvb3QgUjEwgZswFAYHKoZIzj0CAQYJKyQDAwIIAQENA4GCAAQR
JBqfX/4uRAJFm8bnw1FotoYv0HvhLMMHyTl+oIzkPAW1P4XY+X4DV9kPXRz4uy5y
EGWGX6WKguQQggVHsrX+Tsbc/7r32hq4anII4JPaKEkmX+PTpWQkoinvXbFo7o0M
UBxHeBWKjaJgtVxPuI2f5gxNN6wdUXNOYtLG8842O6NTMFEwHQYDVR0OBBYEFMM8
BSwMWYclzz9636IJ+m59l5gGMB8GA1UdIwQYMBaAFMM8BSwMWYclzz9636IJ+m59
l5gGMA8GA1UdEwEB/wQFMAMBAf8wCgYIKoZIzj0EAwIDgYgAMIGEAkBY0mfygV67
ZPxhLhZwhopJvu8CXEZrVpv11UijtloXk1vhFSiZCyGKWkLCH54LW/q+Su+OjATQ
FI6ghzFc0PhkAkAR1z5eLMZGxy640CMZNTes6ZQRPq7t74xSzBJejIbByEVsCf6N
6ZzCtzot54oX3/RoO0cL3q8GrlS8Q+Fuu+Tc
-----END CERTIFICATE-----
